; Function Attrs: nounwind uwtable
define range(i32 -1, 1) i32 @H5C_flush_to_min_clean(ptr noundef %0) local_unnamed_addr #0 {
  %2 = alloca i8, align 1
  %3 = getelementptr inbounds i8, ptr %0, i64 16
  %4 = load ptr, ptr %3, align 8
  %5 = getelementptr inbounds i8, ptr %4, i64 112
  %6 = load ptr, ptr %5, align 8
  %7 = getelementptr inbounds i8, ptr %6, i64 56
  %8 = load ptr, ptr %7, align 8
  %.not = icmp eq ptr %8, null
  br i1 %.not, label %16, label %9

9:                                                ; preds = %1
  %10 = call i32 %8(ptr noundef nonnull %0, ptr noundef nonnull %2) #8
  %11 = icmp slt i32 %10, 0
  br i1 %11, label %12, label %._crit_edge

._crit_edge:                                      ; preds = %9
  %.pre = load i8, ptr %2, align 1
  br label %20

12:                                               ; preds = %9
  %13 = load i64, ptr @H5E_CACHE_g, align 8
  %14 = load i64, ptr @H5E_SYSTEM_g, align 8
  %15 = call i32 (ptr, ptr, i32, i64, i64, ptr, ...) @H5E_printf_stack(ptr noundef nonnull @.str.1, ptr noundef nonnull @__func__.H5C_flush_to_min_clean, i32 noundef 756, i64 noundef %13, i64 noundef %14, ptr noundef nonnull @.str.17) #8
  br label %34

16:                                               ; preds = %1
  %17 = getelementptr inbounds i8, ptr %6, i64 64
  %18 = load i8, ptr %17, align 8
  %19 = and i8 %18, 1
  store i8 %19, ptr %2, align 1
  br label %20

20:                                               ; preds = %._crit_edge, %16
  %21 = phi i8 [ %.pre, %._crit_edge ], [ %19, %16 ]
  %22 = trunc i8 %21 to i1
  br i1 %22, label %27, label %23

23:                                               ; preds = %20
  %24 = load i64, ptr @H5E_CACHE_g, align 8
  %25 = load i64, ptr @H5E_SYSTEM_g, align 8
  %26 = call i32 (ptr, ptr, i32, i64, i64, ptr, ...) @H5E_printf_stack(ptr noundef nonnull @.str.1, ptr noundef nonnull @__func__.H5C_flush_to_min_clean, i32 noundef 762, i64 noundef %24, i64 noundef %25, ptr noundef nonnull @.str.18) #8
  br label %34

27:                                               ; preds = %20
  %28 = call i32 @H5C__make_space_in_cache(ptr noundef nonnull %0, i64 noundef 0, i1 noundef zeroext true) #8
  %29 = icmp slt i32 %28, 0
  br i1 %29, label %30, label %34

30:                                               ; preds = %27
  %31 = load i64, ptr @H5E_CACHE_g, align 8
  %32 = load i64, ptr @H5E_SYSTEM_g, align 8
  %33 = call i32 (ptr, ptr, i32, i64, i64, ptr, ...) @H5E_printf_stack(ptr noundef nonnull @.str.1, ptr noundef nonnull @__func__.H5C_flush_to_min_clean, i32 noundef 765, i64 noundef %31, i64 noundef %32, ptr noundef nonnull @.str.19) #8
  br label %34

34:                                               ; preds = %27, %30, %23, %12
  %.0 = phi i32 [ -1, %12 ], [ -1, %30 ], [ 0, %27 ], [ -1, %23 ]
  ret i32 %.0
}